; Function Attrs: mustprogress uwtable
define void @_ZN4base26UTF8ToUTF16WithAdjustmentsERKNS_16BasicStringPieceINSt7__cxx1112basic_stringIcSt11char_traitsIcESaIcEEEEEPSt6vectorINS_14OffsetAdjuster10AdjustmentESaISC_EE(ptr dead_on_unwind noalias writable sret(%"class.std::__cxx11::basic_string.10") align 8 %0, ptr noundef nonnull readonly align 8 captures(none) dereferenceable(16) %1, ptr noundef %2) local_unnamed_addr #4 personality ptr @__gxx_personality_v0 {
  %4 = getelementptr inbounds nuw i8, ptr %0, i64 16
  store ptr %4, ptr %0, align 8, !tbaa !44
  %5 = getelementptr inbounds nuw i8, ptr %0, i64 8
  store i64 0, ptr %5, align 8, !tbaa !47
  store i16 0, ptr %4, align 8, !tbaa !49
  %6 = load ptr, ptr %1, align 8, !tbaa !51
  %7 = getelementptr inbounds nuw i8, ptr %1, i64 8
  %8 = load i64, ptr %7, align 8, !tbaa !54
  invoke void @_ZN4base25PrepareForUTF16Or32OutputINSt7__cxx1112basic_stringItNS_20string16_char_traitsESaItEEEEEvPKcmPT_(ptr noundef %6, i64 noundef %8, ptr noundef nonnull %0)
          to label %.noexc unwind label %10

.noexc:                                           ; preds = %3
  %9 = invoke noundef zeroext i1 @_ZN4base14ConvertUnicodeIcNSt7__cxx1112basic_stringItNS_20string16_char_traitsESaItEEEEEbPKT_mPT0_PSt6vectorINS_14OffsetAdjuster10AdjustmentESaISD_EE(ptr noundef %6, i64 noundef %8, ptr noundef nonnull %0, ptr noundef %2)
          to label %_ZN4base26UTF8ToUTF16WithAdjustmentsEPKcmPNSt7__cxx1112basic_stringItNS_20string16_char_traitsESaItEEEPSt6vectorINS_14OffsetAdjuster10AdjustmentESaISA_EE.exit unwind label %10

10:                                               ; preds = %.noexc, %3
  %11 = landingpad { ptr, i32 }
          cleanup
  %12 = load ptr, ptr %0, align 8, !tbaa !55
  %13 = icmp eq ptr %12, %4
  br i1 %13, label %_ZNKSt7__cxx1112basic_stringItN4base20string16_char_traitsESaItEE11_M_is_localEv.exit.thread.i.i, label %_ZNKSt7__cxx1112basic_stringItN4base20string16_char_traitsESaItEE11_M_is_localEv.exit.i.i

_ZNKSt7__cxx1112basic_stringItN4base20string16_char_traitsESaItEE11_M_is_localEv.exit.thread.i.i: ; preds = %10
  %14 = load i64, ptr %5, align 8, !tbaa !47
  %15 = icmp ult i64 %14, 8
  tail call void @llvm.assume(i1 %15)
  br label %_ZNSt7__cxx1112basic_stringItN4base20string16_char_traitsESaItEED2Ev.exit

_ZNKSt7__cxx1112basic_stringItN4base20string16_char_traitsESaItEE11_M_is_localEv.exit.i.i: ; preds = %10
  tail call void @_ZdlPv(ptr noundef %12) #16
  br label %_ZNSt7__cxx1112basic_stringItN4base20string16_char_traitsESaItEED2Ev.exit

_ZNSt7__cxx1112basic_stringItN4base20string16_char_traitsESaItEED2Ev.exit: ; preds = %_ZNKSt7__cxx1112basic_stringItN4base20string16_char_traitsESaItEE11_M_is_localEv.exit.thread.i.i, %_ZNKSt7__cxx1112basic_stringItN4base20string16_char_traitsESaItEE11_M_is_localEv.exit.i.i
  resume { ptr, i32 } %11

_ZN4base26UTF8ToUTF16WithAdjustmentsEPKcmPNSt7__cxx1112basic_stringItNS_20string16_char_traitsESaItEEEPSt6vectorINS_14OffsetAdjuster10AdjustmentESaISA_EE.exit: ; preds = %.noexc
  ret void
}